; Function Attrs: mustprogress nounwind willreturn uwtable
define dso_local range(i32 -5, 1) i32 @onig_node_str_cat(ptr noundef captures(address) %0, ptr noundef %1, ptr noundef %2) local_unnamed_addr #15 {
  %4 = ptrtoint ptr %2 to i64
  %5 = ptrtoint ptr %1 to i64
  %6 = sub i64 %4, %5
  %7 = trunc i64 %6 to i32
  %8 = icmp sgt i32 %7, 0
  br i1 %8, label %9, label %.critedge

9:                                                ; preds = %3
  %10 = getelementptr inbounds nuw i8, ptr %0, i64 24
  %11 = load ptr, ptr %10, align 8, !tbaa !10
  %12 = getelementptr inbounds nuw i8, ptr %0, i64 16
  %13 = load ptr, ptr %12, align 8, !tbaa !10
  %14 = ptrtoint ptr %11 to i64
  %15 = ptrtoint ptr %13 to i64
  %16 = sub i64 %14, %15
  %17 = trunc i64 %16 to i32
  %18 = getelementptr inbounds nuw i8, ptr %0, i64 60
  %19 = load i32, ptr %18, align 4, !tbaa !10
  %20 = icmp sgt i32 %19, 0
  %21 = add nsw i32 %17, %7
  %22 = icmp sgt i32 %21, 23
  %or.cond = select i1 %20, i1 true, i1 %22
  br i1 %or.cond, label %23, label %onig_strcpy.exit56

23:                                               ; preds = %9
  %24 = add nsw i32 %21, 16
  %.not = icmp sgt i32 %24, %19
  br i1 %.not, label %29, label %onig_strcpy.exit

onig_strcpy.exit:                                 ; preds = %23
  %sext51 = shl i64 %16, 32
  %25 = ashr exact i64 %sext51, 32
  %26 = getelementptr inbounds i8, ptr %13, i64 %25
  %27 = and i64 %6, 2147483647
  tail call void @llvm.memcpy.p0.p0.i64(ptr align 1 %26, ptr align 1 %1, i64 %27, i1 false)
  %28 = getelementptr inbounds nuw i8, ptr %26, i64 %27
  store i8 0, ptr %28, align 1, !tbaa !10
  br label %.critedge54

29:                                               ; preds = %23
  %30 = getelementptr inbounds nuw i8, ptr %0, i64 36
  %31 = icmp eq ptr %13, %30
  br i1 %31, label %32, label %42

32:                                               ; preds = %29
  %33 = add nsw i32 %21, 17
  %34 = sext i32 %33 to i64
  %35 = tail call noalias ptr @malloc(i64 noundef %34) #26
  %36 = icmp eq ptr %35, null
  br i1 %36, label %.critedge, label %37

37:                                               ; preds = %32
  %38 = icmp sgt i32 %17, 0
  br i1 %38, label %39, label %strcat_capa_from_static.exit

39:                                               ; preds = %37
  %40 = and i64 %16, 2147483647
  tail call void @llvm.memcpy.p0.p0.i64(ptr nonnull align 1 %35, ptr align 1 %13, i64 %40, i1 false)
  %41 = getelementptr inbounds nuw i8, ptr %35, i64 %40
  store i8 0, ptr %41, align 1, !tbaa !10
  br label %strcat_capa_from_static.exit

42:                                               ; preds = %29
  %.not.i = icmp eq ptr %13, null
  %43 = add nsw i32 %21, 17
  %44 = sext i32 %43 to i64
  br i1 %.not.i, label %47, label %45

45:                                               ; preds = %42
  %46 = tail call ptr @realloc(ptr noundef nonnull %13, i64 noundef %44) #27
  br label %49

47:                                               ; preds = %42
  %48 = tail call noalias ptr @malloc(i64 noundef %44) #26
  br label %49

49:                                               ; preds = %47, %45
  %.012.i = phi ptr [ %46, %45 ], [ %48, %47 ]
  %50 = icmp eq ptr %.012.i, null
  br i1 %50, label %.critedge, label %strcat_capa_from_static.exit

strcat_capa_from_static.exit:                     ; preds = %49, %39, %37
  %.sink64 = phi ptr [ %35, %37 ], [ %35, %39 ], [ %.012.i, %49 ]
  %51 = getelementptr inbounds i8, ptr %.sink64, i64 %16
  %52 = and i64 %6, 2147483647
  tail call void @llvm.memcpy.p0.p0.i64(ptr nonnull align 1 %51, ptr align 1 %1, i64 %52, i1 false)
  %53 = getelementptr inbounds nuw i8, ptr %51, i64 %52
  store i8 0, ptr %53, align 1, !tbaa !10
  store ptr %.sink64, ptr %12, align 8, !tbaa !10
  store i32 %24, ptr %18, align 4, !tbaa !10
  %.pre = shl i64 %16, 32
  %.pre58 = ashr exact i64 %.pre, 32
  br label %.critedge54

onig_strcpy.exit56:                               ; preds = %9
  %sext = shl i64 %16, 32
  %54 = ashr exact i64 %sext, 32
  %55 = getelementptr inbounds i8, ptr %13, i64 %54
  %56 = and i64 %6, 2147483647
  tail call void @llvm.memcpy.p0.p0.i64(ptr align 1 %55, ptr align 1 %1, i64 %56, i1 false)
  %57 = getelementptr inbounds nuw i8, ptr %55, i64 %56
  store i8 0, ptr %57, align 1, !tbaa !10
  br label %.critedge54

.critedge54:                                      ; preds = %strcat_capa_from_static.exit, %onig_strcpy.exit, %onig_strcpy.exit56
  %.pre-phi60 = phi i64 [ %52, %strcat_capa_from_static.exit ], [ %27, %onig_strcpy.exit ], [ %56, %onig_strcpy.exit56 ]
  %.pre-phi = phi i64 [ %.pre58, %strcat_capa_from_static.exit ], [ %25, %onig_strcpy.exit ], [ %54, %onig_strcpy.exit56 ]
  %58 = load ptr, ptr %12, align 8, !tbaa !10
  %59 = getelementptr inbounds i8, ptr %58, i64 %.pre-phi
  %60 = getelementptr inbounds nuw i8, ptr %59, i64 %.pre-phi60
  store ptr %60, ptr %10, align 8, !tbaa !10
  br label %.critedge

.critedge:                                        ; preds = %49, %32, %3, %.critedge54
  %.3 = phi i32 [ 0, %.critedge54 ], [ 0, %3 ], [ -5, %32 ], [ -5, %49 ]
  ret i32 %.3
}